target datalayout = "e-m:e-p270:32:32-p271:32:32-p272:64:64-i64:64-i128:128-f80:128-n8:16:32:64-S128"
target triple = "x86_64-pc-linux-gnu"

%struct.Cbs0_Par_t_ = type { i32, i32, i32, i32, i32, i32, i32, i32, i32, i32 }
%struct.Cbs0_Man_t_ = type { %struct.Cbs0_Par_t_, ptr, %struct.Cbs0_Que_t_, %struct.Cbs0_Que_t_, ptr, i32, i32, i32, i32, i32, i32, i32, i64, i64, i64, i64 }
%struct.Cbs0_Que_t_ = type { i32, i32, i32, ptr }
%struct.Vec_Int_t_ = type { i32, i32, ptr }

; Function Attrs: inlinehint nounwind uwtable
define internal void @Vec_IntFree(ptr noundef %0) #5 {
  %2 = alloca ptr, align 8
  store ptr %0, ptr %2, align 8, !tbaa !30
  %3 = load ptr, ptr %2, align 8, !tbaa !30
  %4 = getelementptr inbounds nuw %struct.Vec_Int_t_, ptr %3, i32 0, i32 2
  %5 = load ptr, ptr %4, align 8, !tbaa !35
  %6 = icmp ne ptr %5, null
  br i1 %6, label %7, label %13

7:                                                ; preds = %1
  %8 = load ptr, ptr %2, align 8, !tbaa !30
  %9 = getelementptr inbounds nuw %struct.Vec_Int_t_, ptr %8, i32 0, i32 2
  %10 = load ptr, ptr %9, align 8, !tbaa !35
  call void @free(ptr noundef %10) #11
  %11 = load ptr, ptr %2, align 8, !tbaa !30
  %12 = getelementptr inbounds nuw %struct.Vec_Int_t_, ptr %11, i32 0, i32 2
  store ptr null, ptr %12, align 8, !tbaa !35
  br label %14

13:                                               ; preds = %1
  br label %14

14:                                               ; preds = %13, %7
  %15 = load ptr, ptr %2, align 8, !tbaa !30
  %16 = icmp ne ptr %15, null
  br i1 %16, label %17, label %19

17:                                               ; preds = %14
  %18 = load ptr, ptr %2, align 8, !tbaa !30
  call void @free(ptr noundef %18) #11
  store ptr null, ptr %2, align 8, !tbaa !30
  br label %20

19:                                               ; preds = %14
  br label %20

20:                                               ; preds = %19, %17
  ret void
}

; Function Attrs: nounwind uwtable
define void @Cbs0_ManStop(ptr noundef %0) #0 {
  %2 = alloca ptr, align 8
  store ptr %0, ptr %2, align 8, !tbaa !16
  %3 = load ptr, ptr %2, align 8, !tbaa !16
  %4 = getelementptr inbounds nuw %struct.Cbs0_Man_t_, ptr %3, i32 0, i32 4
  %5 = load ptr, ptr %4, align 8, !tbaa !28
  call void @Vec_IntFree(ptr noundef %5)
  %6 = load ptr, ptr %2, align 8, !tbaa !16
  %7 = getelementptr inbounds nuw %struct.Cbs0_Man_t_, ptr %6, i32 0, i32 2
  %8 = getelementptr inbounds nuw %struct.Cbs0_Que_t_, ptr %7, i32 0, i32 3
  %9 = load ptr, ptr %8, align 8, !tbaa !26
  %10 = icmp ne ptr %9, null
  br i1 %10, label %11, label %19

11:                                               ; preds = %1
  %12 = load ptr, ptr %2, align 8, !tbaa !16
  %13 = getelementptr inbounds nuw %struct.Cbs0_Man_t_, ptr %12, i32 0, i32 2
  %14 = getelementptr inbounds nuw %struct.Cbs0_Que_t_, ptr %13, i32 0, i32 3
  %15 = load ptr, ptr %14, align 8, !tbaa !26
  call void @free(ptr noundef %15) #11
  %16 = load ptr, ptr %2, align 8, !tbaa !16
  %17 = getelementptr inbounds nuw %struct.Cbs0_Man_t_, ptr %16, i32 0, i32 2
  %18 = getelementptr inbounds nuw %struct.Cbs0_Que_t_, ptr %17, i32 0, i32 3
  store ptr null, ptr %18, align 8, !tbaa !26
  br label %20

19:                                               ; preds = %1
  br label %20

20:                                               ; preds = %19, %11
  %21 = load ptr, ptr %2, align 8, !tbaa !16
  %22 = getelementptr inbounds nuw %struct.Cbs0_Man_t_, ptr %21, i32 0, i32 3
  %23 = getelementptr inbounds nuw %struct.Cbs0_Que_t_, ptr %22, i32 0, i32 3
  %24 = load ptr, ptr %23, align 8, !tbaa !27
  %25 = icmp ne ptr %24, null
  br i1 %25, label %26, label %34

26:                                               ; preds = %20
  %27 = load ptr, ptr %2, align 8, !tbaa !16
  %28 = getelementptr inbounds nuw %struct.Cbs0_Man_t_, ptr %27, i32 0, i32 3
  %29 = getelementptr inbounds nuw %struct.Cbs0_Que_t_, ptr %28, i32 0, i32 3
  %30 = load ptr, ptr %29, align 8, !tbaa !27
  call void @free(ptr noundef %30) #11
  %31 = load ptr, ptr %2, align 8, !tbaa !16
  %32 = getelementptr inbounds nuw %struct.Cbs0_Man_t_, ptr %31, i32 0, i32 3
  %33 = getelementptr inbounds nuw %struct.Cbs0_Que_t_, ptr %32, i32 0, i32 3
  store ptr null, ptr %33, align 8, !tbaa !27
  br label %35

34:                                               ; preds = %20
  br label %35

35:                                               ; preds = %34, %26
  %36 = load ptr, ptr %2, align 8, !tbaa !16
  %37 = icmp ne ptr %36, null
  br i1 %37, label %38, label %40

38:                                               ; preds = %35
  %39 = load ptr, ptr %2, align 8, !tbaa !16
  call void @free(ptr noundef %39) #11
  store ptr null, ptr %2, align 8, !tbaa !16
  br label %41

40:                                               ; preds = %35
  br label %41

41:                                               ; preds = %40, %38
  ret void
}