; Function Attrs: mustprogress nounwind willreturn uwtable
define void @Cbs0_ManStop(ptr noundef captures(none) %0) local_unnamed_addr #6 {
  %2 = getelementptr inbounds nuw i8, ptr %0, i64 96
  %3 = load ptr, ptr %2, align 8, !tbaa !29
  %4 = getelementptr inbounds nuw i8, ptr %3, i64 8
  %5 = load ptr, ptr %4, align 8, !tbaa !28
  %.not.i = icmp eq ptr %5, null
  br i1 %.not.i, label %Vec_IntFree.exit, label %6

6:                                                ; preds = %1
  tail call void @free(ptr noundef nonnull %5) #22
  br label %Vec_IntFree.exit

Vec_IntFree.exit:                                 ; preds = %1, %6
  tail call void @free(ptr noundef nonnull %3) #22
  %7 = getelementptr inbounds nuw i8, ptr %0, i64 64
  %8 = load ptr, ptr %7, align 8, !tbaa !22
  %.not = icmp eq ptr %8, null
  br i1 %.not, label %10, label %9

9:                                                ; preds = %Vec_IntFree.exit
  tail call void @free(ptr noundef nonnull %8) #22
  store ptr null, ptr %7, align 8, !tbaa !22
  br label %10

10:                                               ; preds = %Vec_IntFree.exit, %9
  %11 = getelementptr inbounds nuw i8, ptr %0, i64 88
  %12 = load ptr, ptr %11, align 8, !tbaa !23
  %.not11 = icmp eq ptr %12, null
  br i1 %.not11, label %14, label %13

13:                                               ; preds = %10
  tail call void @free(ptr noundef nonnull %12) #22
  br label %14

14:                                               ; preds = %10, %13
  tail call void @free(ptr noundef nonnull %0) #22
  ret void
}